target datalayout = "e-m:e-p270:32:32-p271:32:32-p272:64:64-i64:64-i128:128-f80:128-n8:16:32:64-S128"
target triple = "x86_64-pc-linux-gnu"

%"class.icu_77::InputText" = type <{ ptr, i32, [4 x i8], ptr, i8, [7 x i8], ptr, ptr, i32, [4 x i8] }>

; Function Attrs: mustprogress nounwind uwtable
define void @_ZN6icu_779InputTextD2Ev(ptr noundef nonnull align 8 dereferenceable(52) %0) unnamed_addr #2 align 2 personality ptr @__gxx_personality_v0 {
  %2 = alloca ptr, align 8
  store ptr %0, ptr %2, align 8, !tbaa !3
  %3 = load ptr, ptr %2, align 8
  %4 = getelementptr inbounds nuw %"class.icu_77::InputText", ptr %3, i32 0, i32 6
  %5 = load ptr, ptr %4, align 8, !tbaa !15
  invoke void @uprv_free_77(ptr noundef %5)
          to label %6 unwind label %13

6:                                                ; preds = %1
  %7 = getelementptr inbounds nuw %"class.icu_77::InputText", ptr %3, i32 0, i32 3
  %8 = load ptr, ptr %7, align 8, !tbaa !14
  invoke void @uprv_free_77(ptr noundef %8)
          to label %9 unwind label %13

9:                                                ; preds = %6
  %10 = getelementptr inbounds nuw %"class.icu_77::InputText", ptr %3, i32 0, i32 0
  %11 = load ptr, ptr %10, align 8, !tbaa !9
  invoke void @uprv_free_77(ptr noundef %11)
          to label %12 unwind label %13

12:                                               ; preds = %9
  ret void

13:                                               ; preds = %9, %6, %1
  %14 = landingpad { ptr, i32 }
          catch ptr null
  %15 = extractvalue { ptr, i32 } %14, 0
  call void @__clang_call_terminate(ptr %15) #10
  unreachable
}