; Function Attrs: mustprogress nounwind uwtable
define void @_ZN6icu_779InputTextD2Ev(ptr noundef nonnull readonly align 8 captures(none) dereferenceable(52) %0) unnamed_addr #2 align 2 personality ptr @__gxx_personality_v0 {
  %2 = getelementptr inbounds nuw i8, ptr %0, i64 32
  %3 = load ptr, ptr %2, align 8, !tbaa !14
  invoke void @uprv_free_77(ptr noundef %3)
          to label %4 unwind label %10

4:                                                ; preds = %1
  %5 = getelementptr inbounds nuw i8, ptr %0, i64 16
  %6 = load ptr, ptr %5, align 8, !tbaa !11
  invoke void @uprv_free_77(ptr noundef %6)
          to label %7 unwind label %10

7:                                                ; preds = %4
  %8 = load ptr, ptr %0, align 8, !tbaa !3
  invoke void @uprv_free_77(ptr noundef %8)
          to label %9 unwind label %10

9:                                                ; preds = %7
  ret void

10:                                               ; preds = %7, %4, %1
  %11 = landingpad { ptr, i32 }
          catch ptr null
  %12 = extractvalue { ptr, i32 } %11, 0
  tail call void @__clang_call_terminate(ptr %12) #14
  unreachable
}